Certificate:
    Data:
        Version: 3 (0x2)
        Serial Number: 1 (0x1)
    Signature Algorithm: sha256WithRSAEncryption
        Issuer: CN=devcert
        Validity
            Not Before: May  5 01:07:31 2020 GMT
            Not After : Aug  8 01:07:31 2022 GMT
        Subject: CN=localhost
        Subject Public Key Info:
            Public Key Algorithm: rsaEncryption
                Public-Key: (2048 bit)
                Modulus:
                    00:b4:da:ee:4d:8a:d4:d6:97:e6:b2:da:3b:1c:32:
                    a0:08:72:ad:e7:71:b9:cb:c3:ed:c1:d2:a4:76:f9:
                    cd:b5:b9:31:28:f7:5d:11:b6:6f:a7:b5:92:96:af:
                    54:fb:a9:44:4c:95:be:98:01:c8:77:07:08:54:14:
                    37:72:47:10:72:59:0c:ce:df:21:0d:1c:6b:57:c0:
                    5f:1f:cc:96:bd:eb:36:16:c9:19:a3:a8:18:d3:60:
                    e7:30:83:3b:f9:8e:03:bd:62:8d:f7:32:8d:c9:ed:
                    80:30:a0:fd:2b:c1:ab:ae:b8:88:3b:35:f9:e5:17:
                    f7:ad:88:9b:ea:b0:39:56:9b:43:24:c4:2b:8c:b1:
                    ab:fa:5d:ad:e4:e2:9b:f8:ad:7d:35:8f:63:6b:3d:
                    60:22:5e:97:d2:28:31:36:80:3e:47:c1:aa:a3:77:
                    9e:14:dd:1c:d3:f2:f4:97:91:95:13:8d:51:0c:32:
                    b3:66:4f:43:71:81:8a:dd:f6:1e:8b:a2:1c:12:ea:
                    22:d9:d0:3d:a9:76:d1:66:88:53:19:ac:01:3a:92:
                    da:20:b5:c5:78:a1:20:e1:83:d3:f1:66:2e:76:d2:
                    28:ee:ca:a9:54:4a:b3:d7:0c:32:de:cb:0a:a3:fe:
                    86:79:dd:a3:a0:87:ef:3c:e4:5a:c6:f4:69:71:c7:
                    62:17
                Exponent: 65537 (0x10001)
        X509v3 extensions:
            X509v3 Basic Constraints: critical
                CA:FALSE
            X509v3 Subject Key Identifier: 
                A2:E5:2F:B3:2A:E5:12:33:5C:C7:C7:BD:0A:BF:54:01:A6:3A:A5:90
            X509v3 Authority Key Identifier: 
                keyid:E0:BA:03:10:3F:2E:0A:F3:91:A6:EF:DC:B5:39:2D:02:3E:08:C3:01
                DirName:/CN=devcert
                serial:DB:67:D4:C1:5C:E3:C8:9F

            X509v3 Key Usage: critical
                Digital Signature, Key Encipherment
            X509v3 Extended Key Usage: 
                TLS Web Server Authentication
            X509v3 Subject Alternative Name: 
                DNS:localhost, DNS:*.localhost
    Signature Algorithm: sha256WithRSAEncryption
         7e:20:68:16:94:81:dd:1f:0f:9a:e3:27:06:f8:91:5d:24:6c:
         21:7a:b2:38:78:2a:a2:08:0b:36:8f:e5:bc:74:7d:9c:66:f1:
         d0:71:d1:76:2e:4e:19:68:66:a0:6b:d3:fd:3c:67:10:1e:42:
         24:4e:e7:86:2b:82:dc:87:8e:d0:47:d1:4f:9e:bc:4e:3e:ed:
         67:64:cc:a3:b4:74:07:59:70:f6:cb:66:7b:5c:21:8f:9b:f8:
         7e:ed:76:74:4b:d7:53:fd:1d:64:45:77:17:88:67:2f:8f:a1:
         f9:66:d9:58:63:b6:f1:b1:85:ae:62:7f:c5:1e:68:66:72:00:
         c3:eb:61:d3:f3:a2:29:e2:e9:c2:4f:4d:9d:95:ff:a9:cc:1d:
         c7:a0:42:bf:00:17:73:ae:b2:6a:47:58:1f:fd:4c:f1:6b:83:
         d6:8f:5e:8e:84:db:44:4c:b2:91:37:54:91:db:f2:f5:b8:d2:
         d8:dc:a0:f8:2d:dc:9d:57:ef:7a:f0:25:4f:47:7b:ce:a8:4b:
         6e:0e:33:82:e4:15:67:14:86:ce:45:c9:13:97:b0:50:d1:91:
         6d:9c:14:66:93:2c:8a:27:5e:8d:42:c3:bd:f2:bf:c5:58:32:
         4f:f6:a3:e3:3e:ff:4a:90:42:cf:e1:0b:fc:7a:ec:d4:16:ba:
         bb:61:f1:77
-----BEGIN CERTIFICATE-----
MIIDXjCCAkagAwIBAgIBATANBgkqhkiG9w0BAQsFADASMRAwDgYDVQQDDAdkZXZj
ZXJ0MB4XDTIwMDUwNTAxMDczMVoXDTIyMDgwODAxMDczMVowFDESMBAGA1UEAwwJ
bG9jYWxob3N0MIIBIjANBgkqhkiG9w0BAQEFAAOCAQ8AMIIBCgKCAQEAtNruTYrU
1pfmsto7HDKgCHKt53G5y8PtwdKkdvnNtbkxKPddEbZvp7WSlq9U+6lETJW+mAHI
dwcIVBQ3ckcQclkMzt8hDRxrV8BfH8yWves2FskZo6gY02DnMIM7+Y4DvWKN9zKN
ye2AMKD9K8GrrriIOzX55Rf3rYib6rA5VptDJMQrjLGr+l2t5OKb+K19NY9jaz1g
Il6X0igxNoA+R8Gqo3eeFN0c0/L0l5GVE41RDDKzZk9DcYGK3fYei6IcEuoi2dA9
qXbRZohTGawBOpLaILXFeKEg4YPT8WYudtIo7sqpVEqz1wwy3ssKo/6Ged2joIfv
PORaxvRpccdiFwIDAQABo4G8MIG5MAwGA1UdEwEB/wQCMAAwHQYDVR0OBBYEFKLl
L7Mq5RIzXMfHvQq/VAGmOqWQMEIGA1UdIwQ7MDmAFOC6AxA/Lgrzkabv3LU5LQI+
CMMBoRakFDASMRAwDgYDVQQDDAdkZXZjZXJ0ggkA22fUwVzjyJ8wDgYDVR0PAQH/
BAQDAgWgMBMGA1UdJQQMMAoGCCsGAQUFBwMBMCEGA1UdEQQaMBiCCWxvY2FsaG9z
dIILKi5sb2NhbGhvc3QwDQYJKoZIhvcNAQELBQADggEBAH4gaBaUgd0fD5rjJwb4
kV0kbCF6sjh4KqIICzaP5bx0fZxm8dBx0XYuThloZqBr0/08ZxAeQiRO54YrgtyH
jtBH0U+evE4+7WdkzKO0dAdZcPbLZntcIY+b+H7tdnRL11P9HWRFdxeIZy+Poflm
2VhjtvGxha5if8UeaGZyAMPrYdPzoini6cJPTZ2V/6nMHcegQr8AF3OusmpHWB/9
TPFrg9aPXo6E20RMspE3VJHb8vW40tjcoPgt3J1X73rwJU9He86oS24OM4LkFWcU
hs5FyROXsFDRkW2cFGaTLIonXo1Cw73yv8VYMk/2o+M+/0qQQs/hC/x67NQWurth
8Xc=
-----END CERTIFICATE-----
